; Function Attrs: nounwind uwtable
define internal fastcc i32 @delete_git_dir(ptr noundef %0) unnamed_addr #0 {
  %2 = alloca %struct.strbuf, align 8
  call void @llvm.lifetime.start.p0(i64 24, ptr nonnull %2) #18
  call void @llvm.memcpy.p0.p0.i64(ptr noundef nonnull align 8 dereferenceable(24) %2, ptr noundef nonnull align 8 dereferenceable(24) @__const.delete_git_work_tree.sb, i64 24, i1 false)
  %3 = tail call ptr (ptr, ...) @git_common_path(ptr noundef nonnull @.str.69, ptr noundef %0)
  %4 = tail call i64 @strlen(ptr noundef nonnull dereferenceable(1) %3) #20
  call void @strbuf_add(ptr noundef nonnull %2, ptr noundef nonnull %3, i64 noundef %4) #18
  %5 = call i32 @remove_dir_recursively(ptr noundef nonnull %2, i32 noundef 0) #18
  %6 = icmp slt i32 %5, 0
  br i1 %6, label %7, label %15

7:                                                ; preds = %1
  %8 = tail call ptr @__errno_location() #21
  %9 = load i32, ptr %8, align 4, !tbaa !38
  %10 = icmp eq i32 %9, 20
  br i1 %10, label %11, label %.thread

11:                                               ; preds = %7
  %12 = getelementptr inbounds nuw i8, ptr %2, i64 16
  %13 = load ptr, ptr %12, align 8, !tbaa !50
  %14 = call i32 @unlink(ptr noundef %13) #18
  br label %15

15:                                               ; preds = %11, %1
  %.0 = phi i32 [ %14, %11 ], [ %5, %1 ]
  %.not = icmp eq i32 %.0, 0
  br i1 %.not, label %22, label %.thread

.thread:                                          ; preds = %7, %15
  %.06 = phi i32 [ %.0, %15 ], [ %5, %7 ]
  %16 = load i32, ptr @git_gettext_enabled, align 4, !tbaa !38
  %.not4.i = icmp eq i32 %16, 0
  br i1 %.not4.i, label %_.exit, label %17

17:                                               ; preds = %.thread
  %18 = call ptr @dcgettext(ptr noundef null, ptr noundef nonnull @.str.90, i32 noundef 5) #18
  br label %_.exit

_.exit:                                           ; preds = %.thread, %17
  %.0.i = phi ptr [ %18, %17 ], [ @.str.90, %.thread ]
  %19 = getelementptr inbounds nuw i8, ptr %2, i64 16
  %20 = load ptr, ptr %19, align 8, !tbaa !50
  %21 = call i32 (ptr, ...) @error_errno(ptr noundef %.0.i, ptr noundef %20) #18
  br label %22

22:                                               ; preds = %_.exit, %15
  %.07 = phi i32 [ %.06, %_.exit ], [ 0, %15 ]
  call void @strbuf_release(ptr noundef nonnull %2) #18
  call void @llvm.lifetime.end.p0(i64 24, ptr nonnull %2) #18
  ret i32 %.07
}